target datalayout = "e-m:e-p270:32:32-p271:32:32-p272:64:64-i64:64-i128:128-f80:128-n8:16:32:64-S128"
target triple = "x86_64-pc-linux-gnu"

; Function Attrs: nounwind uwtable
define internal i32 @zueci_is_valid_utf8(ptr noundef %0, i32 noundef %1) #0 {
  %3 = alloca i32, align 4
  %4 = alloca ptr, align 8
  %5 = alloca i32, align 4
  %6 = alloca i32, align 4
  %7 = alloca ptr, align 8
  %8 = alloca ptr, align 8
  %9 = alloca i32, align 4
  store ptr %0, ptr %4, align 8
  store i32 %1, ptr %5, align 4
  store i32 0, ptr %6, align 4
  %10 = load ptr, ptr %4, align 8
  store ptr %10, ptr %7, align 8
  %11 = load ptr, ptr %4, align 8
  %12 = load i32, ptr %5, align 4
  %13 = sext i32 %12 to i64
  %14 = getelementptr inbounds i8, ptr %11, i64 %13
  store ptr %14, ptr %8, align 8
  br label %15

15:                                               ; preds = %26, %2
  %16 = load ptr, ptr %7, align 8
  %17 = load ptr, ptr %8, align 8
  %18 = icmp ult ptr %16, %17
  br i1 %18, label %19, label %27

19:                                               ; preds = %15
  %20 = load ptr, ptr %7, align 8
  %21 = getelementptr inbounds i8, ptr %20, i32 1
  store ptr %21, ptr %7, align 8
  %22 = load i8, ptr %20, align 1
  %23 = call i32 @zueci_decode_utf8(ptr noundef %6, ptr noundef %9, i8 noundef zeroext %22)
  %24 = icmp eq i32 %23, 12
  br i1 %24, label %25, label %26

25:                                               ; preds = %19
  store i32 0, ptr %3, align 4
  br label %31

26:                                               ; preds = %19
  br label %15, !llvm.loop !17

27:                                               ; preds = %15
  %28 = load i32, ptr %6, align 4
  %29 = icmp eq i32 %28, 0
  %30 = zext i1 %29 to i32
  store i32 %30, ptr %3, align 4
  br label %31

31:                                               ; preds = %27, %25
  %32 = load i32, ptr %3, align 4
  ret i32 %32
}

; Function Attrs: nounwind uwtable
define internal i32 @zueci_decode_utf8(ptr noundef %0, ptr noundef %1, i8 noundef zeroext %2) #0 {
  %4 = alloca ptr, align 8
  %5 = alloca ptr, align 8
  %6 = alloca i8, align 1
  %7 = alloca i32, align 4
  store ptr %0, ptr %4, align 8
  store ptr %1, ptr %5, align 8
  store i8 %2, ptr %6, align 1
  %8 = load i8, ptr %6, align 1
  %9 = zext i8 %8 to i64
  %10 = getelementptr inbounds [364 x i8], ptr @zueci_decode_utf8.utf8d, i64 0, i64 %9
  %11 = load i8, ptr %10, align 1
  %12 = zext i8 %11 to i32
  store i32 %12, ptr %7, align 4
  %13 = load ptr, ptr %4, align 8
  %14 = load i32, ptr %13, align 4
  %15 = icmp ne i32 %14, 0
  br i1 %15, label %16, label %24

16:                                               ; preds = %3
  %17 = load i8, ptr %6, align 1
  %18 = zext i8 %17 to i32
  %19 = and i32 %18, 63
  %20 = load ptr, ptr %5, align 8
  %21 = load i32, ptr %20, align 4
  %22 = shl i32 %21, 6
  %23 = or i32 %19, %22
  br label %30

24:                                               ; preds = %3
  %25 = load i32, ptr %7, align 4
  %26 = ashr i32 255, %25
  %27 = load i8, ptr %6, align 1
  %28 = zext i8 %27 to i32
  %29 = and i32 %26, %28
  br label %30

30:                                               ; preds = %24, %16
  %31 = phi i32 [ %23, %16 ], [ %29, %24 ]
  %32 = load ptr, ptr %5, align 8
  store i32 %31, ptr %32, align 4
  %33 = load ptr, ptr %4, align 8
  %34 = load i32, ptr %33, align 4
  %35 = add i32 256, %34
  %36 = load i32, ptr %7, align 4
  %37 = add i32 %35, %36
  %38 = zext i32 %37 to i64
  %39 = getelementptr inbounds [364 x i8], ptr @zueci_decode_utf8.utf8d, i64 0, i64 %38
  %40 = load i8, ptr %39, align 1
  %41 = zext i8 %40 to i32
  %42 = load ptr, ptr %4, align 8
  store i32 %41, ptr %42, align 4
  %43 = load ptr, ptr %4, align 8
  %44 = load i32, ptr %43, align 4
  ret i32 %44
}

; Function Attrs: nounwind uwtable
define internal i32 @zueci_is_valid_eci(i32 noundef %0) #0 {
  %2 = alloca i32, align 4
  store i32 %0, ptr %2, align 4
  %3 = load i32, ptr %2, align 4
  %4 = icmp sle i32 %3, 35
  br i1 %4, label %5, label %14

5:                                                ; preds = %1
  %6 = load i32, ptr %2, align 4
  %7 = icmp sge i32 %6, 0
  br i1 %7, label %8, label %14

8:                                                ; preds = %5
  %9 = load i32, ptr %2, align 4
  %10 = icmp ne i32 %9, 14
  br i1 %10, label %11, label %14

11:                                               ; preds = %8
  %12 = load i32, ptr %2, align 4
  %13 = icmp ne i32 %12, 19
  br i1 %13, label %20, label %14

14:                                               ; preds = %11, %8, %5, %1
  %15 = load i32, ptr %2, align 4
  %16 = icmp eq i32 %15, 170
  br i1 %16, label %20, label %17

17:                                               ; preds = %14
  %18 = load i32, ptr %2, align 4
  %19 = icmp eq i32 %18, 899
  br label %20

20:                                               ; preds = %17, %14, %11
  %21 = phi i1 [ true, %14 ], [ true, %11 ], [ %19, %17 ]
  %22 = zext i1 %21 to i32
  ret i32 %22
}

; Function Attrs: nounwind uwtable
define i32 @zueci_utf8_to_eci(i32 noundef %0, ptr noundef %1, i32 noundef %2, ptr noundef %3, ptr noundef %4) #0 {
  %6 = alloca i32, align 4
  %7 = alloca i32, align 4
  %8 = alloca ptr, align 8
  %9 = alloca i32, align 4
  %10 = alloca ptr, align 8
  %11 = alloca ptr, align 8
  %12 = alloca i32, align 4
  %13 = alloca ptr, align 8
  %14 = alloca ptr, align 8
  %15 = alloca ptr, align 8
  %16 = alloca ptr, align 8
  %17 = alloca i32, align 4
  %18 = alloca i32, align 4
  store i32 %0, ptr %7, align 4
  store ptr %1, ptr %8, align 8
  store i32 %2, ptr %9, align 4
  store ptr %3, ptr %10, align 8
  store ptr %4, ptr %11, align 8
  store i32 0, ptr %12, align 4
  %19 = load ptr, ptr %8, align 8
  store ptr %19, ptr %13, align 8
  %20 = load ptr, ptr %8, align 8
  %21 = load i32, ptr %9, align 4
  %22 = sext i32 %21 to i64
  %23 = getelementptr inbounds i8, ptr %20, i64 %22
  store ptr %23, ptr %14, align 8
  %24 = load ptr, ptr %10, align 8
  store ptr %24, ptr %15, align 8
  %25 = load i32, ptr %7, align 4
  %26 = call i32 @zueci_is_valid_eci(i32 noundef %25)
  %27 = icmp ne i32 %26, 0
  br i1 %27, label %29, label %28

28:                                               ; preds = %5
  store i32 7, ptr %6, align 4
  br label %173

29:                                               ; preds = %5
  %30 = load ptr, ptr %8, align 8
  %31 = icmp ne ptr %30, null
  br i1 %31, label %32, label %38

32:                                               ; preds = %29
  %33 = load ptr, ptr %10, align 8
  %34 = icmp ne ptr %33, null
  br i1 %34, label %35, label %38

35:                                               ; preds = %32
  %36 = load ptr, ptr %11, align 8
  %37 = icmp ne ptr %36, null
  br i1 %37, label %39, label %38

38:                                               ; preds = %35, %32, %29
  store i32 8, ptr %6, align 4
  br label %173

39:                                               ; preds = %35
  %40 = load i32, ptr %7, align 4
  %41 = icmp eq i32 %40, 1
  br i1 %41, label %45, label %42

42:                                               ; preds = %39
  %43 = load i32, ptr %7, align 4
  %44 = icmp eq i32 %43, 3
  br i1 %44, label %45, label %95

45:                                               ; preds = %42, %39
  br label %46

46:                                               ; preds = %82, %45
  %47 = load ptr, ptr %13, align 8
  %48 = load ptr, ptr %14, align 8
  %49 = icmp ult ptr %47, %48
  br i1 %49, label %50, label %87

50:                                               ; preds = %46
  br label %51

51:                                               ; preds = %66, %50
  %52 = load ptr, ptr %13, align 8
  %53 = getelementptr inbounds i8, ptr %52, i32 1
  store ptr %53, ptr %13, align 8
  %54 = load i8, ptr %52, align 1
  %55 = call i32 @zueci_decode_utf8(ptr noundef %12, ptr noundef %17, i8 noundef zeroext %54)
  br label %56

56:                                               ; preds = %51
  %57 = load ptr, ptr %13, align 8
  %58 = load ptr, ptr %14, align 8
  %59 = icmp ult ptr %57, %58
  br i1 %59, label %60, label %66

60:                                               ; preds = %56
  %61 = load i32, ptr %12, align 4
  %62 = icmp ne i32 %61, 0
  br i1 %62, label %63, label %66

63:                                               ; preds = %60
  %64 = load i32, ptr %12, align 4
  %65 = icmp ne i32 %64, 12
  br label %66

66:                                               ; preds = %63, %60, %56
  %67 = phi i1 [ false, %60 ], [ false, %56 ], [ %65, %63 ]
  br i1 %67, label %51, label %68, !llvm.loop !4

68:                                               ; preds = %66
  %69 = load i32, ptr %12, align 4
  %70 = icmp ne i32 %69, 0
  br i1 %70, label %71, label %72

71:                                               ; preds = %68
  store i32 9, ptr %6, align 4
  br label %173

72:                                               ; preds = %68
  %73 = load i32, ptr %17, align 4
  %74 = icmp uge i32 %73, 128
  br i1 %74, label %75, label %82

75:                                               ; preds = %72
  %76 = load i32, ptr %17, align 4
  %77 = icmp ult i32 %76, 160
  br i1 %77, label %81, label %78

78:                                               ; preds = %75
  %79 = load i32, ptr %17, align 4
  %80 = icmp uge i32 %79, 256
  br i1 %80, label %81, label %82

81:                                               ; preds = %78, %75
  store i32 6, ptr %6, align 4
  br label %173

82:                                               ; preds = %78, %72
  %83 = load i32, ptr %17, align 4
  %84 = trunc i32 %83 to i8
  %85 = load ptr, ptr %15, align 8
  %86 = getelementptr inbounds i8, ptr %85, i32 1
  store ptr %86, ptr %15, align 8
  store i8 %84, ptr %85, align 1
  br label %46, !llvm.loop !6

87:                                               ; preds = %46
  %88 = load ptr, ptr %15, align 8
  %89 = load ptr, ptr %10, align 8
  %90 = ptrtoint ptr %88 to i64
  %91 = ptrtoint ptr %89 to i64
  %92 = sub i64 %90, %91
  %93 = trunc i64 %92 to i32
  %94 = load ptr, ptr %11, align 8
  store i32 %93, ptr %94, align 4
  store i32 0, ptr %6, align 4
  br label %173

95:                                               ; preds = %42
  %96 = load i32, ptr %7, align 4
  %97 = icmp eq i32 %96, 26
  br i1 %97, label %98, label %111

98:                                               ; preds = %95
  %99 = load ptr, ptr %8, align 8
  %100 = load i32, ptr %9, align 4
  %101 = call i32 @zueci_is_valid_utf8(ptr noundef %99, i32 noundef %100)
  %102 = icmp ne i32 %101, 0
  br i1 %102, label %104, label %103

103:                                              ; preds = %98
  store i32 9, ptr %6, align 4
  br label %173

104:                                              ; preds = %98
  %105 = load ptr, ptr %10, align 8
  %106 = load ptr, ptr %8, align 8
  %107 = load i32, ptr %9, align 4
  %108 = sext i32 %107 to i64
  call void @llvm.memcpy.p0.p0.i64(ptr align 1 %105, ptr align 1 %106, i64 %108, i1 false)
  %109 = load i32, ptr %9, align 4
  %110 = load ptr, ptr %11, align 8
  store i32 %109, ptr %110, align 4
  store i32 0, ptr %6, align 4
  br label %173

111:                                              ; preds = %95
  %112 = load i32, ptr %7, align 4
  %113 = icmp eq i32 %112, 170
  br i1 %113, label %114, label %115

114:                                              ; preds = %111
  store ptr @zueci_u_ascii_inv, ptr %16, align 8
  br label %125

115:                                              ; preds = %111
  %116 = load i32, ptr %7, align 4
  %117 = icmp eq i32 %116, 899
  br i1 %117, label %118, label %119

118:                                              ; preds = %115
  store ptr @zueci_u_binary, ptr %16, align 8
  br label %124

119:                                              ; preds = %115
  %120 = load i32, ptr %7, align 4
  %121 = sext i32 %120 to i64
  %122 = getelementptr inbounds [36 x ptr], ptr @zueci_utf8_to_eci.zueci_eci_funcs, i64 0, i64 %121
  %123 = load ptr, ptr %122, align 8
  store ptr %123, ptr %16, align 8
  br label %124

124:                                              ; preds = %119, %118
  br label %125

125:                                              ; preds = %124, %114
  br label %126

126:                                              ; preds = %160, %125
  %127 = load ptr, ptr %13, align 8
  %128 = load ptr, ptr %14, align 8
  %129 = icmp ult ptr %127, %128
  br i1 %129, label %130, label %165

130:                                              ; preds = %126
  br label %131

131:                                              ; preds = %146, %130
  %132 = load ptr, ptr %13, align 8
  %133 = getelementptr inbounds i8, ptr %132, i32 1
  store ptr %133, ptr %13, align 8
  %134 = load i8, ptr %132, align 1
  %135 = call i32 @zueci_decode_utf8(ptr noundef %12, ptr noundef %17, i8 noundef zeroext %134)
  br label %136

136:                                              ; preds = %131
  %137 = load ptr, ptr %13, align 8
  %138 = load ptr, ptr %14, align 8
  %139 = icmp ult ptr %137, %138
  br i1 %139, label %140, label %146

140:                                              ; preds = %136
  %141 = load i32, ptr %12, align 4
  %142 = icmp ne i32 %141, 0
  br i1 %142, label %143, label %146

143:                                              ; preds = %140
  %144 = load i32, ptr %12, align 4
  %145 = icmp ne i32 %144, 12
  br label %146

146:                                              ; preds = %143, %140, %136
  %147 = phi i1 [ false, %140 ], [ false, %136 ], [ %145, %143 ]
  br i1 %147, label %131, label %148, !llvm.loop !7

148:                                              ; preds = %146
  %149 = load i32, ptr %12, align 4
  %150 = icmp ne i32 %149, 0
  br i1 %150, label %151, label %152

151:                                              ; preds = %148
  store i32 9, ptr %6, align 4
  br label %173

152:                                              ; preds = %148
  %153 = load ptr, ptr %16, align 8
  %154 = load i32, ptr %17, align 4
  %155 = load ptr, ptr %15, align 8
  %156 = call i32 %153(i32 noundef %154, ptr noundef %155)
  store i32 %156, ptr %18, align 4
  %157 = load i32, ptr %18, align 4
  %158 = icmp eq i32 %157, 0
  br i1 %158, label %159, label %160

159:                                              ; preds = %152
  store i32 6, ptr %6, align 4
  br label %173

160:                                              ; preds = %152
  %161 = load i32, ptr %18, align 4
  %162 = load ptr, ptr %15, align 8
  %163 = sext i32 %161 to i64
  %164 = getelementptr inbounds i8, ptr %162, i64 %163
  store ptr %164, ptr %15, align 8
  br label %126, !llvm.loop !8

165:                                              ; preds = %126
  %166 = load ptr, ptr %15, align 8
  %167 = load ptr, ptr %10, align 8
  %168 = ptrtoint ptr %166 to i64
  %169 = ptrtoint ptr %167 to i64
  %170 = sub i64 %168, %169
  %171 = trunc i64 %170 to i32
  %172 = load ptr, ptr %11, align 8
  store i32 %171, ptr %172, align 4
  store i32 0, ptr %6, align 4
  br label %173

173:                                              ; preds = %165, %159, %151, %104, %103, %87, %81, %71, %38, %28
  %174 = load i32, ptr %6, align 4
  ret i32 %174
}