; Function Attrs: nounwind uwtable
define noundef i32 @zueci_utf8_to_eci(i32 noundef %0, ptr noundef readonly %1, i32 noundef %2, ptr noundef %3, ptr noundef writeonly %4) local_unnamed_addr #0 {
  %6 = sext i32 %2 to i64
  %7 = getelementptr inbounds i8, ptr %1, i64 %6
  %or.cond.i = icmp ugt i32 %0, 35
  br i1 %or.cond.i, label %switch.early.test101, label %switch.early.test102

switch.early.test102:                             ; preds = %5
  switch i32 %0, label %8 [
    i32 14, label %zueci_is_valid_utf8.exit.thread
    i32 19, label %zueci_is_valid_utf8.exit.thread
  ]

switch.early.test101:                             ; preds = %5
  switch i32 %0, label %zueci_is_valid_utf8.exit.thread [
    i32 899, label %8
    i32 170, label %8
  ]

8:                                                ; preds = %switch.early.test102, %switch.early.test101, %switch.early.test101
  %9 = icmp ne ptr %1, null
  %10 = icmp ne ptr %3, null
  %or.cond = and i1 %9, %10
  %11 = icmp ne ptr %4, null
  %or.cond3 = and i1 %or.cond, %11
  br i1 %or.cond3, label %12, label %zueci_is_valid_utf8.exit.thread

12:                                               ; preds = %8
  %13 = and i32 %0, 957
  %or.cond5 = icmp eq i32 %13, 1
  br i1 %or.cond5, label %.preheader103, label %53

.preheader103:                                    ; preds = %12
  %14 = icmp sgt i32 %2, 0
  br i1 %14, label %.preheader, label %._crit_edge140

.preheader:                                       ; preds = %.preheader103, %46
  %.061139 = phi ptr [ %48, %46 ], [ %3, %.preheader103 ]
  %.062138 = phi ptr [ %16, %46 ], [ %1, %.preheader103 ]
  %.085137 = phi i32 [ %31, %46 ], [ undef, %.preheader103 ]
  br label %15

15:                                               ; preds = %.preheader, %switch.early.test
  %.190 = phi i32 [ %39, %switch.early.test ], [ 0, %.preheader ]
  %.186 = phi i32 [ %31, %switch.early.test ], [ %.085137, %.preheader ]
  %.163 = phi ptr [ %16, %switch.early.test ], [ %.062138, %.preheader ]
  %16 = getelementptr inbounds i8, ptr %.163, i64 1
  %17 = load i8, ptr %.163, align 1
  %18 = zext i8 %17 to i64
  %19 = getelementptr inbounds [364 x i8], ptr @zueci_decode_utf8.utf8d, i64 0, i64 %18
  %20 = load i8, ptr %19, align 1
  %21 = zext i8 %20 to i32
  %.not.i = icmp eq i32 %.190, 0
  br i1 %.not.i, label %27, label %22

22:                                               ; preds = %15
  %23 = and i8 %17, 63
  %24 = zext nneg i8 %23 to i32
  %25 = shl i32 %.186, 6
  %26 = or disjoint i32 %25, %24
  br label %zueci_decode_utf8.exit

27:                                               ; preds = %15
  %28 = lshr i32 255, %21
  %29 = zext i8 %17 to i32
  %30 = and i32 %28, %29
  br label %zueci_decode_utf8.exit

zueci_decode_utf8.exit:                           ; preds = %22, %27
  %31 = phi i32 [ %26, %22 ], [ %30, %27 ]
  %32 = or disjoint i32 %.190, 256
  %33 = add nuw nsw i32 %32, %21
  %34 = zext nneg i32 %33 to i64
  %35 = getelementptr inbounds [364 x i8], ptr @zueci_decode_utf8.utf8d, i64 0, i64 %34
  %36 = load i8, ptr %35, align 1
  %37 = icmp ult ptr %16, %7
  %38 = freeze i1 %37
  br i1 %38, label %switch.early.test, label %.critedge

switch.early.test:                                ; preds = %zueci_decode_utf8.exit
  %39 = zext i8 %36 to i32
  switch i8 %36, label %15 [
    i8 0, label %.loopexit
    i8 12, label %zueci_is_valid_utf8.exit.thread
  ]

.critedge:                                        ; preds = %zueci_decode_utf8.exit
  %.not100 = icmp eq i8 %36, 0
  br i1 %.not100, label %.loopexit.thread, label %zueci_is_valid_utf8.exit.thread

.loopexit:                                        ; preds = %switch.early.test
  %40 = icmp ugt i32 %31, 127
  %41 = add i32 %31, -256
  %or.cond9 = icmp ult i32 %41, -96
  %or.cond71 = and i1 %40, %or.cond9
  br i1 %or.cond71, label %zueci_is_valid_utf8.exit.thread, label %46

.loopexit.thread:                                 ; preds = %.critedge
  %42 = icmp ugt i32 %31, 127
  %43 = add i32 %31, -256
  %or.cond9167 = icmp ult i32 %43, -96
  %or.cond71168 = and i1 %42, %or.cond9167
  br i1 %or.cond71168, label %zueci_is_valid_utf8.exit.thread, label %.thread

.thread:                                          ; preds = %.loopexit.thread
  %44 = trunc nuw i32 %31 to i8
  %45 = getelementptr inbounds i8, ptr %.061139, i64 1
  store i8 %44, ptr %.061139, align 1
  br label %._crit_edge140

46:                                               ; preds = %.loopexit
  %47 = trunc nuw i32 %31 to i8
  %48 = getelementptr inbounds i8, ptr %.061139, i64 1
  store i8 %47, ptr %.061139, align 1
  br i1 %38, label %.preheader, label %._crit_edge140, !llvm.loop !4

._crit_edge140:                                   ; preds = %46, %.thread, %.preheader103
  %.061.lcssa = phi ptr [ %3, %.preheader103 ], [ %45, %.thread ], [ %48, %46 ]
  %49 = ptrtoint ptr %.061.lcssa to i64
  %50 = ptrtoint ptr %3 to i64
  %51 = sub i64 %49, %50
  %52 = trunc i64 %51 to i32
  br label %zueci_is_valid_utf8.exit.thread.sink.split

53:                                               ; preds = %12
  switch i32 %0, label %70 [
    i32 26, label %.preheader110
    i32 170, label %74
    i32 899, label %69
  ]

.preheader110:                                    ; preds = %53, %zueci_decode_utf8.exit.i
  %.011.i = phi i32 [ %66, %zueci_decode_utf8.exit.i ], [ 0, %53 ]
  %.06.i = phi ptr [ %55, %zueci_decode_utf8.exit.i ], [ %1, %53 ]
  %54 = icmp ult ptr %.06.i, %7
  br i1 %54, label %zueci_decode_utf8.exit.i, label %zueci_is_valid_utf8.exit

zueci_decode_utf8.exit.i:                         ; preds = %.preheader110
  %55 = getelementptr inbounds i8, ptr %.06.i, i64 1
  %56 = load i8, ptr %.06.i, align 1
  %57 = zext i8 %56 to i64
  %58 = getelementptr inbounds [364 x i8], ptr @zueci_decode_utf8.utf8d, i64 0, i64 %57
  %59 = load i8, ptr %58, align 1
  %60 = zext i8 %59 to i32
  %61 = or disjoint i32 %.011.i, 256
  %62 = add nuw nsw i32 %61, %60
  %63 = zext nneg i32 %62 to i64
  %64 = getelementptr inbounds [364 x i8], ptr @zueci_decode_utf8.utf8d, i64 0, i64 %63
  %65 = load i8, ptr %64, align 1
  %66 = zext i8 %65 to i32
  %67 = icmp eq i8 %65, 12
  br i1 %67, label %zueci_is_valid_utf8.exit.thread, label %.preheader110, !llvm.loop !6

zueci_is_valid_utf8.exit:                         ; preds = %.preheader110
  %.not = icmp eq i32 %.011.i, 0
  br i1 %.not, label %68, label %zueci_is_valid_utf8.exit.thread

68:                                               ; preds = %zueci_is_valid_utf8.exit
  tail call void @llvm.memcpy.p0.p0.i64(ptr nonnull align 1 %3, ptr nonnull align 1 %1, i64 %6, i1 false)
  br label %zueci_is_valid_utf8.exit.thread.sink.split

69:                                               ; preds = %53
  br label %74

70:                                               ; preds = %53
  %71 = zext nneg i32 %0 to i64
  %72 = getelementptr inbounds [36 x ptr], ptr @zueci_utf8_to_eci.zueci_eci_funcs, i64 0, i64 %71
  %73 = load ptr, ptr %72, align 8
  br label %74

74:                                               ; preds = %53, %69, %70
  %.060 = phi ptr [ @zueci_u_binary, %69 ], [ %73, %70 ], [ @zueci_u_ascii_inv, %53 ]
  %75 = icmp sgt i32 %2, 0
  br i1 %75, label %.preheader105, label %._crit_edge

.preheader105:                                    ; preds = %74, %107
  %.1136 = phi ptr [ %109, %107 ], [ %3, %74 ]
  %.2135 = phi ptr [ %77, %107 ], [ %1, %74 ]
  %.287134 = phi i32 [ %92, %107 ], [ undef, %74 ]
  br label %76

76:                                               ; preds = %.preheader105, %switch.early.test72
  %.392 = phi i32 [ %100, %switch.early.test72 ], [ 0, %.preheader105 ]
  %.388 = phi i32 [ %92, %switch.early.test72 ], [ %.287134, %.preheader105 ]
  %.3 = phi ptr [ %77, %switch.early.test72 ], [ %.2135, %.preheader105 ]
  %77 = getelementptr inbounds i8, ptr %.3, i64 1
  %78 = load i8, ptr %.3, align 1
  %79 = zext i8 %78 to i64
  %80 = getelementptr inbounds [364 x i8], ptr @zueci_decode_utf8.utf8d, i64 0, i64 %79
  %81 = load i8, ptr %80, align 1
  %82 = zext i8 %81 to i32
  %.not.i73 = icmp eq i32 %.392, 0
  br i1 %.not.i73, label %88, label %83

83:                                               ; preds = %76
  %84 = and i8 %78, 63
  %85 = zext nneg i8 %84 to i32
  %86 = shl i32 %.388, 6
  %87 = or disjoint i32 %86, %85
  br label %zueci_decode_utf8.exit74

88:                                               ; preds = %76
  %89 = lshr i32 255, %82
  %90 = zext i8 %78 to i32
  %91 = and i32 %89, %90
  br label %zueci_decode_utf8.exit74

zueci_decode_utf8.exit74:                         ; preds = %83, %88
  %92 = phi i32 [ %87, %83 ], [ %91, %88 ]
  %93 = or disjoint i32 %.392, 256
  %94 = add nuw nsw i32 %93, %82
  %95 = zext nneg i32 %94 to i64
  %96 = getelementptr inbounds [364 x i8], ptr @zueci_decode_utf8.utf8d, i64 0, i64 %95
  %97 = load i8, ptr %96, align 1
  %98 = icmp ult ptr %77, %7
  %99 = freeze i1 %98
  br i1 %99, label %switch.early.test72, label %.critedge13

switch.early.test72:                              ; preds = %zueci_decode_utf8.exit74
  %100 = zext i8 %97 to i32
  switch i8 %97, label %76 [
    i8 0, label %.loopexit106
    i8 12, label %zueci_is_valid_utf8.exit.thread
  ]

.critedge13:                                      ; preds = %zueci_decode_utf8.exit74
  %.not99 = icmp eq i8 %97, 0
  br i1 %.not99, label %.loopexit106.thread, label %zueci_is_valid_utf8.exit.thread

.loopexit106:                                     ; preds = %switch.early.test72
  %101 = tail call i32 %.060(i32 noundef %92, ptr noundef %.1136) #8
  %102 = icmp eq i32 %101, 0
  br i1 %102, label %zueci_is_valid_utf8.exit.thread, label %107

.loopexit106.thread:                              ; preds = %.critedge13
  %103 = tail call i32 %.060(i32 noundef %92, ptr noundef %.1136) #8
  %104 = icmp eq i32 %103, 0
  br i1 %104, label %zueci_is_valid_utf8.exit.thread, label %.thread169

.thread169:                                       ; preds = %.loopexit106.thread
  %105 = sext i32 %103 to i64
  %106 = getelementptr inbounds i8, ptr %.1136, i64 %105
  br label %._crit_edge

107:                                              ; preds = %.loopexit106
  %108 = sext i32 %101 to i64
  %109 = getelementptr inbounds i8, ptr %.1136, i64 %108
  br i1 %99, label %.preheader105, label %._crit_edge, !llvm.loop !7

._crit_edge:                                      ; preds = %107, %.thread169, %74
  %.1.lcssa = phi ptr [ %3, %74 ], [ %106, %.thread169 ], [ %109, %107 ]
  %110 = ptrtoint ptr %.1.lcssa to i64
  %111 = ptrtoint ptr %3 to i64
  %112 = sub i64 %110, %111
  %113 = trunc i64 %112 to i32
  br label %zueci_is_valid_utf8.exit.thread.sink.split

zueci_is_valid_utf8.exit.thread.sink.split:       ; preds = %._crit_edge140, %68, %._crit_edge
  %.sink = phi i32 [ %113, %._crit_edge ], [ %2, %68 ], [ %52, %._crit_edge140 ]
  store i32 %.sink, ptr %4, align 4
  br label %zueci_is_valid_utf8.exit.thread

zueci_is_valid_utf8.exit.thread:                  ; preds = %zueci_decode_utf8.exit.i, %.loopexit106, %switch.early.test72, %.loopexit, %switch.early.test, %zueci_is_valid_utf8.exit.thread.sink.split, %.critedge13, %.loopexit106.thread, %.critedge, %.loopexit.thread, %switch.early.test102, %switch.early.test102, %switch.early.test101, %zueci_is_valid_utf8.exit, %8
  %.0 = phi i32 [ 7, %switch.early.test101 ], [ 8, %8 ], [ 9, %zueci_is_valid_utf8.exit ], [ 7, %switch.early.test102 ], [ 7, %switch.early.test102 ], [ 9, %.critedge ], [ 6, %.loopexit.thread ], [ 9, %.critedge13 ], [ 6, %.loopexit106.thread ], [ 0, %zueci_is_valid_utf8.exit.thread.sink.split ], [ 9, %switch.early.test ], [ 6, %.loopexit ], [ 9, %switch.early.test72 ], [ 6, %.loopexit106 ], [ 9, %zueci_decode_utf8.exit.i ]
  ret i32 %.0
}